TN:
SF:/app/src/include/data.h
FN:9,_ZN4DataC2ERKSt6vectorI6ResultSaIS1_EE
FN:10,_ZNK4Data10getResultsEv
FN:11,_ZNK4Data7getSizeEv
FNDA:8,_ZNK4Data10getResultsEv
FNDA:4,_ZN4DataC2ERKSt6vectorI6ResultSaIS1_EE
FNDA:4,_ZNK4Data7getSizeEv
FNF:3
FNH:3
DA:9,4
DA:10,8
DA:11,4
LF:3
LH:3
end_of_record
TN:
SF:/app/src/include/logger.h
FN:6,_ZN6LoggerC2Ev
FN:7,_ZN6LoggerD2Ev
FN:7,_ZN6LoggerD0Ev
FNDA:22,_ZN6LoggerD2Ev
FNDA:0,_ZN6LoggerD0Ev
FNDA:22,_ZN6LoggerC2Ev
FNF:3
FNH:2
DA:6,22
DA:7,22
LF:2
LH:2
end_of_record
TN:
SF:/app/src/main/calculator.cc
FN:5,_ZN10CalculatorC2EP6Logger
FN:12,_ZN10Calculator3addEii
FN:20,_ZN10Calculator8multiplyEii
FN:28,_ZNK10Calculator15get_last_resultEv
FNDA:8,_ZN10CalculatorC2EP6Logger
FNDA:7,_ZN10Calculator8multiplyEii
FNDA:4,_ZNK10Calculator15get_last_resultEv
FNDA:7,_ZN10Calculator3addEii
FNF:4
FNH:4
DA:5,8
DA:12,7
DA:13,7
DA:15,7
DA:16,7
DA:17,7
DA:20,7
DA:21,7
DA:23,7
DA:24,7
DA:25,7
DA:28,4
DA:29,4
LF:13
LH:13
end_of_record
TN:
SF:/app/src/main/error_handler.cc
FN:3,_ZN12ErrorHandlerC2Ev
FN:5,_ZN12ErrorHandler6divideEii
FN:12,_ZN12ErrorHandler11divide_safeEiiPb
FNDA:3,_ZN12ErrorHandlerC2Ev
FNDA:2,_ZN12ErrorHandler11divide_safeEiiPb
FNDA:2,_ZN12ErrorHandler6divideEii
FNF:3
FNH:3
DA:3,3
DA:5,2
DA:6,2
DA:7,1
DA:9,1
DA:12,2
DA:13,2
DA:14,2
DA:15,1
DA:17,1
LF:10
LH:10
end_of_record
TN:
SF:/app/src/main/logger.cc
FN:4,_ZN6Logger3logEPKc
FN:9,_ZNK6Logger12get_last_logEv
FNDA:14,_ZN6Logger3logEPKc
FNDA:2,_ZNK6Logger12get_last_logEv
FNF:2
FNH:2
DA:4,14
DA:5,14
DA:6,14
DA:7,14
DA:9,2
DA:10,2
LF:6
LH:6
end_of_record
TN:
SF:/app/tests/test_calculator.cc
FN:10,_ZN14CalculatorTestC2Ev
FN:12,_ZN14CalculatorTest5SetUpEv
FN:13,_ZN14CalculatorTest8TearDownEv
FN:16,_ZN27CalculatorTest_AddTest_Test8TestBodyEv
FN:16,_ZN27CalculatorTest_AddTest_TestC2Ev
FN:21,_ZN32CalculatorTest_MultiplyTest_Test8TestBodyEv
FN:21,_ZN32CalculatorTest_MultiplyTest_TestC2Ev
FN:26,_ZN34CalculatorTest_LastResultTest_TestC2Ev
FN:26,_ZN34CalculatorTest_LastResultTest_Test8TestBodyEv
FNDA:6,_ZN32CalculatorTest_MultiplyTest_TestC2Ev
FNDA:6,_ZN27CalculatorTest_AddTest_TestC2Ev
FNDA:18,_ZN14CalculatorTest5SetUpEv
FNDA:6,_ZN32CalculatorTest_MultiplyTest_Test8TestBodyEv
FNDA:18,_ZN14CalculatorTest8TearDownEv
FNDA:6,_ZN34CalculatorTest_LastResultTest_Test8TestBodyEv
FNDA:18,_ZN14CalculatorTestC2Ev
FNDA:6,_ZN27CalculatorTest_AddTest_Test8TestBodyEv
FNDA:6,_ZN34CalculatorTest_LastResultTest_TestC2Ev
FNF:9
FNH:9
DA:10,18
DA:12,18
DA:13,18
DA:16,12
DA:17,6
DA:18,6
DA:19,6
DA:21,12
DA:22,6
DA:23,6
DA:24,6
DA:26,12
DA:27,6
DA:28,6
DA:29,6
DA:30,6
DA:31,6
LF:17
LH:17
end_of_record
TN:
SF:/app/tests/test_data.cc
FN:4,_ZN31DataTest_GetResultsAndSize_TestC2Ev
FN:4,_ZN31DataTest_GetResultsAndSize_Test8TestBodyEv
FNDA:4,_ZN31DataTest_GetResultsAndSize_Test8TestBodyEv
FNDA:4,_ZN31DataTest_GetResultsAndSize_TestC2Ev
FNF:2
FNH:2
DA:4,8
DA:5,8
DA:6,4
DA:7,4
DA:8,8
DA:9,4
DA:10,4
DA:11,4
DA:12,4
LF:9
LH:9
end_of_record
TN:
SF:/app/tests/test_error_handler.cc
FN:9,_ZN16ErrorHandlerTest5SetUpEv
FN:10,_ZN16ErrorHandlerTest8TearDownEv
FN:13,_ZN34ErrorHandlerTest_DivideNormal_TestC2Ev
FN:13,_ZN34ErrorHandlerTest_DivideNormal_Test8TestBodyEv
FN:18,_ZN34ErrorHandlerTest_DivideByZero_Test8TestBodyEv
FN:18,_ZN34ErrorHandlerTest_DivideByZero_TestC2Ev
FN:23,_ZN43ErrorHandlerTest_DivideThrowsException_Test8TestBodyEv
FN:23,_ZN43ErrorHandlerTest_DivideThrowsException_TestC2Ev
FNDA:9,_ZN16ErrorHandlerTest5SetUpEv
FNDA:3,_ZN43ErrorHandlerTest_DivideThrowsException_Test8TestBodyEv
FNDA:9,_ZN16ErrorHandlerTest8TearDownEv
FNDA:3,_ZN34ErrorHandlerTest_DivideNormal_TestC2Ev
FNDA:3,_ZN34ErrorHandlerTest_DivideByZero_Test8TestBodyEv
FNDA:3,_ZN34ErrorHandlerTest_DivideByZero_TestC2Ev
FNDA:3,_ZN34ErrorHandlerTest_DivideNormal_Test8TestBodyEv
FNDA:3,_ZN43ErrorHandlerTest_DivideThrowsException_TestC2Ev
FNF:8
FNH:8
DA:9,9
DA:10,9
DA:13,6
DA:14,3
DA:15,3
DA:16,3
DA:18,6
DA:19,3
DA:20,3
DA:21,3
DA:23,6
DA:24,3
DA:25,3
DA:26,3
LF:14
LH:14
end_of_record
TN:
SF:/app/tests/test_logger.cc
FN:10,_ZN14DependencyTestC2Ev
FN:11,_ZN14DependencyTest5SetUpEv
FN:12,_ZN14DependencyTest8TearDownEv
FN:15,_ZN37DependencyTest_CalculatorLogsAdd_TestC2Ev
FN:15,_ZN37DependencyTest_CalculatorLogsAdd_Test8TestBodyEv
FN:20,_ZN42DependencyTest_CalculatorLogsMultiply_TestC2Ev
FN:20,_ZN42DependencyTest_CalculatorLogsMultiply_Test8TestBodyEv
FNDA:2,_ZN42DependencyTest_CalculatorLogsMultiply_Test8TestBodyEv
FNDA:4,_ZN14DependencyTest5SetUpEv
FNDA:2,_ZN37DependencyTest_CalculatorLogsAdd_Test8TestBodyEv
FNDA:2,_ZN42DependencyTest_CalculatorLogsMultiply_TestC2Ev
FNDA:2,_ZN37DependencyTest_CalculatorLogsAdd_TestC2Ev
FNDA:4,_ZN14DependencyTest8TearDownEv
FNDA:4,_ZN14DependencyTestC2Ev
FNF:7
FNH:7
DA:10,4
DA:11,4
DA:12,4
DA:15,4
DA:16,2
DA:17,2
DA:18,2
DA:20,4
DA:21,2
DA:22,2
DA:23,2
LF:11
LH:11
end_of_record
