TN:
SF:/app/src/include/data.h
FN:9,_ZN4DataC2ERKSt6vectorI6ResultSaIS1_EE
FN:10,_ZNK4Data10getResultsEv
FN:11,_ZNK4Data7getSizeEv
FNDA:4,_ZNK4Data7getSizeEv
FNDA:8,_ZNK4Data10getResultsEv
FNDA:4,_ZN4DataC2ERKSt6vectorI6ResultSaIS1_EE
FNF:3
FNH:3
DA:9,4
DA:10,8
DA:11,4
LF:3
LH:3
end_of_record
TN:
SF:/app/src/include/logger.h
FN:6,_ZN6LoggerC2Ev
FN:7,_ZN6LoggerD2Ev
FN:7,_ZN6LoggerD0Ev
FNDA:0,_ZN6LoggerD0Ev
FNDA:22,_ZN6LoggerC2Ev
FNDA:22,_ZN6LoggerD2Ev
FNF:3
FNH:2
DA:6,22
DA:7,22
LF:2
LH:2
end_of_record
TN:
SF:/app/src/main/calculator.cc
FN:5,_ZN10CalculatorC2EP6Logger
FN:12,_ZN10Calculator3addEii
FN:20,_ZN10Calculator8multiplyEii
FN:28,_ZNK10Calculator15get_last_resultEv
FNDA:4,_ZNK10Calculator15get_last_resultEv
FNDA:8,_ZN10CalculatorC2EP6Logger
FNDA:7,_ZN10Calculator8multiplyEii
FNDA:7,_ZN10Calculator3addEii
FNF:4
FNH:4
DA:5,8
DA:12,7
DA:13,7
DA:15,7
DA:16,7
DA:17,7
DA:20,7
DA:21,7
DA:23,7
DA:24,7
DA:25,7
DA:28,4
DA:29,4
LF:13
LH:13
end_of_record
TN:
SF:/app/src/main/error_handler.cc
FN:3,_ZN12ErrorHandlerC2Ev
FN:5,_ZN12ErrorHandler6divideEii
FN:12,_ZN12ErrorHandler11divide_safeEiiPb
FNDA:3,_ZN12ErrorHandlerC2Ev
FNDA:2,_ZN12ErrorHandler11divide_safeEiiPb
FNDA:2,_ZN12ErrorHandler6divideEii
FNF:3
FNH:3
DA:3,3
DA:5,2
DA:6,2
DA:7,1
DA:9,1
DA:12,2
DA:13,2
DA:14,2
DA:15,1
DA:17,1
LF:10
LH:10
end_of_record
TN:
SF:/app/src/main/logger.cc
FN:4,_ZN6Logger3logEPKc
FN:9,_ZNK6Logger12get_last_logEv
FNDA:14,_ZN6Logger3logEPKc
FNDA:2,_ZNK6Logger12get_last_logEv
FNF:2
FNH:2
DA:4,14
DA:5,14
DA:6,14
DA:7,14
DA:9,2
DA:10,2
LF:6
LH:6
end_of_record
TN:
SF:/app/tests/test_calculator.cc
FN:10,_ZN14CalculatorTestC2Ev
FN:12,_ZN14CalculatorTest5SetUpEv
FN:13,_ZN14CalculatorTest8TearDownEv
FN:16,_ZN27CalculatorTest_AddTest_TestC2Ev
FN:16,_ZN27CalculatorTest_AddTest_Test8TestBodyEv
FN:21,_ZN32CalculatorTest_MultiplyTest_Test8TestBodyEv
FN:21,_ZN32CalculatorTest_MultiplyTest_TestC2Ev
FN:26,_ZN34CalculatorTest_LastResultTest_TestC2Ev
FN:26,_ZN34CalculatorTest_LastResultTest_Test8TestBodyEv
FNDA:6,_ZN27CalculatorTest_AddTest_TestC2Ev
FNDA:18,_ZN14CalculatorTest5SetUpEv
FNDA:6,_ZN27CalculatorTest_AddTest_Test8TestBodyEv
FNDA:6,_ZN32CalculatorTest_MultiplyTest_TestC2Ev
FNDA:18,_ZN14CalculatorTestC2Ev
FNDA:6,_ZN34CalculatorTest_LastResultTest_TestC2Ev
FNDA:18,_ZN14CalculatorTest8TearDownEv
FNDA:6,_ZN32CalculatorTest_MultiplyTest_Test8TestBodyEv
FNDA:6,_ZN34CalculatorTest_LastResultTest_Test8TestBodyEv
FNF:9
FNH:9
DA:10,18
DA:12,18
DA:13,18
DA:16,12
DA:17,6
DA:18,6
DA:19,6
DA:21,12
DA:22,6
DA:23,6
DA:24,6
DA:26,12
DA:27,6
DA:28,6
DA:29,6
DA:30,6
DA:31,6
LF:17
LH:17
end_of_record
TN:
SF:/app/tests/test_data.cc
FN:4,_ZN31DataTest_GetResultsAndSize_TestC2Ev
FN:4,_ZN31DataTest_GetResultsAndSize_Test8TestBodyEv
FNDA:4,_ZN31DataTest_GetResultsAndSize_TestC2Ev
FNDA:4,_ZN31DataTest_GetResultsAndSize_Test8TestBodyEv
FNF:2
FNH:2
DA:4,8
DA:5,8
DA:6,4
DA:7,4
DA:8,8
DA:9,4
DA:10,4
DA:11,4
DA:12,4
LF:9
LH:9
end_of_record
TN:
SF:/app/tests/test_error_handler.cc
FN:9,_ZN16ErrorHandlerTest5SetUpEv
FN:10,_ZN16ErrorHandlerTest8TearDownEv
FN:13,_ZN34ErrorHandlerTest_DivideNormal_TestC2Ev
FN:13,_ZN34ErrorHandlerTest_DivideNormal_Test8TestBodyEv
FN:18,_ZN34ErrorHandlerTest_DivideByZero_Test8TestBodyEv
FN:18,_ZN34ErrorHandlerTest_DivideByZero_TestC2Ev
FN:23,_ZN43ErrorHandlerTest_DivideThrowsException_TestC2Ev
FN:23,_ZN43ErrorHandlerTest_DivideThrowsException_Test8TestBodyEv
FNDA:9,_ZN16ErrorHandlerTest8TearDownEv
FNDA:3,_ZN34ErrorHandlerTest_DivideByZero_Test8TestBodyEv
FNDA:3,_ZN43ErrorHandlerTest_DivideThrowsException_TestC2Ev
FNDA:3,_ZN34ErrorHandlerTest_DivideNormal_TestC2Ev
FNDA:9,_ZN16ErrorHandlerTest5SetUpEv
FNDA:3,_ZN34ErrorHandlerTest_DivideNormal_Test8TestBodyEv
FNDA:3,_ZN43ErrorHandlerTest_DivideThrowsException_Test8TestBodyEv
FNDA:3,_ZN34ErrorHandlerTest_DivideByZero_TestC2Ev
FNF:8
FNH:8
DA:9,9
DA:10,9
DA:13,6
DA:14,3
DA:15,3
DA:16,3
DA:18,6
DA:19,3
DA:20,3
DA:21,3
DA:23,6
DA:24,3
DA:25,3
DA:26,3
LF:14
LH:14
end_of_record
TN:
SF:/app/tests/test_logger.cc
FN:10,_ZN14DependencyTestC2Ev
FN:11,_ZN14DependencyTest5SetUpEv
FN:12,_ZN14DependencyTest8TearDownEv
FN:15,_ZN37DependencyTest_CalculatorLogsAdd_Test8TestBodyEv
FN:15,_ZN37DependencyTest_CalculatorLogsAdd_TestC2Ev
FN:20,_ZN42DependencyTest_CalculatorLogsMultiply_Test8TestBodyEv
FN:20,_ZN42DependencyTest_CalculatorLogsMultiply_TestC2Ev
FNDA:2,_ZN37DependencyTest_CalculatorLogsAdd_Test8TestBodyEv
FNDA:2,_ZN42DependencyTest_CalculatorLogsMultiply_Test8TestBodyEv
FNDA:2,_ZN42DependencyTest_CalculatorLogsMultiply_TestC2Ev
FNDA:2,_ZN37DependencyTest_CalculatorLogsAdd_TestC2Ev
FNDA:4,_ZN14DependencyTestC2Ev
FNDA:4,_ZN14DependencyTest5SetUpEv
FNDA:4,_ZN14DependencyTest8TearDownEv
FNF:7
FNH:7
DA:10,4
DA:11,4
DA:12,4
DA:15,4
DA:16,2
DA:17,2
DA:18,2
DA:20,4
DA:21,2
DA:22,2
DA:23,2
LF:11
LH:11
end_of_record
TN:
SF:/usr/include/c++/10/bits/alloc_traits.h
FN:735,_ZSt8_DestroyIP6ResultS0_EvT_S2_RSaIT0_E
FNDA:16,_ZSt8_DestroyIP6ResultS0_EvT_S2_RSaIT0_E
FNF:1
FNH:1
DA:735,16
DA:738,16
DA:739,16
LF:3
LH:3
end_of_record
TN:
SF:/usr/include/c++/10/bits/allocator.h
FN:144,_ZNSaI6ResultEC2Ev
FN:147,_ZNSaI6ResultEC2ERKS0_
FN:162,_ZNSaI6ResultED2Ev
FNDA:4,_ZNSaI6ResultEC2ERKS0_
FNDA:4,_ZNSaI6ResultEC2Ev
FNDA:8,_ZNSaI6ResultED2Ev
FNF:3
FNH:3
DA:144,4
DA:147,4
DA:148,4
DA:162,8
LF:4
LH:4
end_of_record
TN:
SF:/usr/include/c++/10/bits/basic_string.h
FN:243,_ZNSt7__cxx1112basic_stringIcSt11char_traitsIcESaIcEE16_M_construct_auxIPKcEEvT_S8_St12__false_type
FN:243,_ZNSt7__cxx1112basic_stringIcSt11char_traitsIcESaIcEE16_M_construct_auxIPcEEvT_S7_St12__false_type
FN:263,_ZNSt7__cxx1112basic_stringIcSt11char_traitsIcESaIcEE12_M_constructIPcEEvT_S7_
FN:263,_ZNSt7__cxx1112basic_stringIcSt11char_traitsIcESaIcEE12_M_constructIPKcEEvT_S8_
FN:6185,_ZSteqIcSt11char_traitsIcESaIcEEbRKNSt7__cxx1112basic_stringIT_T0_T1_EEPKS5_
FNDA:0,_ZNSt7__cxx1112basic_stringIcSt11char_traitsIcESaIcEE12_M_constructIPKcEEvT_S8_
FNDA:0,_ZNSt7__cxx1112basic_stringIcSt11char_traitsIcESaIcEE16_M_construct_auxIPcEEvT_S7_St12__false_type
FNDA:0,_ZNSt7__cxx1112basic_stringIcSt11char_traitsIcESaIcEE16_M_construct_auxIPKcEEvT_S8_St12__false_type
FNDA:0,_ZSteqIcSt11char_traitsIcESaIcEEbRKNSt7__cxx1112basic_stringIT_T0_T1_EEPKS5_
FNDA:0,_ZNSt7__cxx1112basic_stringIcSt11char_traitsIcESaIcEE12_M_constructIPcEEvT_S7_
FNF:5
FNH:0
DA:243,0
DA:247,0
DA:248,0
DA:263,0
DA:266,0
DA:267,0
DA:525,9
DA:6185,0
DA:6187,0
LF:9
LH:1
end_of_record
TN:
SF:/usr/include/c++/10/bits/basic_string.tcc
FN:206,_ZNSt7__cxx1112basic_stringIcSt11char_traitsIcESaIcEE12_M_constructIPKcEEvT_S8_St20forward_iterator_tag
FN:206,_ZNSt7__cxx1112basic_stringIcSt11char_traitsIcESaIcEE12_M_constructIPcEEvT_S7_St20forward_iterator_tag
FNDA:0,_ZNSt7__cxx1112basic_stringIcSt11char_traitsIcESaIcEE12_M_constructIPKcEEvT_S8_St20forward_iterator_tag
FNDA:0,_ZNSt7__cxx1112basic_stringIcSt11char_traitsIcESaIcEE12_M_constructIPcEEvT_S7_St20forward_iterator_tag
FNF:2
FNH:0
DA:206,0
DA:211,0
DA:212,0
DA:215,0
DA:217,0
DA:219,0
DA:220,0
DA:225,0
DA:226,0
DA:228,0
DA:229,0
DA:232,0
DA:233,0
LF:13
LH:0
end_of_record
TN:
SF:/usr/include/c++/10/bits/char_traits.h
FN:358,_ZNSt11char_traitsIcE6lengthEPKc
FNDA:0,_ZNSt11char_traitsIcE6lengthEPKc
FNF:1
FNH:0
DA:358,0
DA:364,0
LF:2
LH:0
end_of_record
TN:
SF:/usr/include/c++/10/bits/move.h
FN:49,_ZSt11__addressofI6ResultEPT_RS1_
FNDA:32,_ZSt11__addressofI6ResultEPT_RS1_
FNF:1
FNH:1
DA:49,32
DA:50,32
LF:2
LH:2
end_of_record
TN:
SF:/usr/include/c++/10/bits/stl_algobase.h
FN:230,_ZSt3minImERKT_S2_S2_
FN:254,_ZSt3maxImERKT_S2_S2_
FNDA:0,_ZSt3minImERKT_S2_S2_
FNDA:0,_ZSt3maxImERKT_S2_S2_
FNF:2
FNH:0
DA:230,0
DA:235,0
DA:236,0
DA:237,0
DA:254,0
DA:259,0
DA:260,0
DA:261,0
LF:8
LH:0
end_of_record
TN:
SF:/usr/include/c++/10/bits/stl_construct.h
FN:113,_ZSt10_ConstructI6ResultS0_EvPT_RKT0_
FN:135,_ZSt8_DestroyI6ResultEvPT_
FN:149,_ZNSt12_Destroy_auxILb0EE9__destroyIP6ResultEEvT_S4_
FN:171,_ZSt8_DestroyIP6ResultEvT_S2_
FNDA:16,_ZNSt12_Destroy_auxILb0EE9__destroyIP6ResultEEvT_S4_
FNDA:20,_ZSt8_DestroyI6ResultEvPT_
FNDA:16,_ZSt8_DestroyIP6ResultEvT_S2_
FNDA:12,_ZSt10_ConstructI6ResultS0_EvPT_RKT0_
FNF:4
FNH:4
DA:113,12
DA:117,12
DA:118,12
DA:135,20
DA:140,20
DA:142,20
DA:149,36
DA:151,36
DA:152,20
DA:153,16
DA:171,16
DA:185,16
DA:186,16
LF:13
LH:13
end_of_record
TN:
SF:/usr/include/c++/10/bits/stl_iterator.h
FN:978,_ZN9__gnu_cxx17__normal_iteratorIP6ResultSt6vectorIS1_SaIS1_EEEC2ERKS2_
FN:978,_ZN9__gnu_cxx17__normal_iteratorIPK6ResultSt6vectorIS1_SaIS1_EEEC2ERKS3_
FN:993,_ZNK9__gnu_cxx17__normal_iteratorIPK6ResultSt6vectorIS1_SaIS1_EEEdeEv
FN:1003,_ZN9__gnu_cxx17__normal_iteratorIPK6ResultSt6vectorIS1_SaIS1_EEEppEv
FN:1056,_ZNK9__gnu_cxx17__normal_iteratorIP6ResultSt6vectorIS1_SaIS1_EEE4baseEv
FN:1056,_ZNK9__gnu_cxx17__normal_iteratorIPK6ResultSt6vectorIS1_SaIS1_EEE4baseEv
FN:1113,_ZN9__gnu_cxxneIPK6ResultSt6vectorIS1_SaIS1_EEEEbRKNS_17__normal_iteratorIT_T0_EESC_
FN:1202,_ZN9__gnu_cxxmiIP6ResultSt6vectorIS1_SaIS1_EEEENS_17__normal_iteratorIT_T0_E15difference_typeERKS9_SC_
FNDA:8,_ZN9__gnu_cxxmiIP6ResultSt6vectorIS1_SaIS1_EEEENS_17__normal_iteratorIT_T0_E15difference_typeERKS9_SC_
FNDA:32,_ZNK9__gnu_cxx17__normal_iteratorIP6ResultSt6vectorIS1_SaIS1_EEE4baseEv
FNDA:8,_ZNK9__gnu_cxx17__normal_iteratorIPK6ResultSt6vectorIS1_SaIS1_EEEdeEv
FNDA:16,_ZN9__gnu_cxx17__normal_iteratorIP6ResultSt6vectorIS1_SaIS1_EEEC2ERKS2_
FNDA:24,_ZNK9__gnu_cxx17__normal_iteratorIPK6ResultSt6vectorIS1_SaIS1_EEE4baseEv
FNDA:12,_ZN9__gnu_cxxneIPK6ResultSt6vectorIS1_SaIS1_EEEEbRKNS_17__normal_iteratorIT_T0_EESC_
FNDA:8,_ZN9__gnu_cxx17__normal_iteratorIPK6ResultSt6vectorIS1_SaIS1_EEEppEv
FNDA:8,_ZN9__gnu_cxx17__normal_iteratorIPK6ResultSt6vectorIS1_SaIS1_EEEC2ERKS3_
FNF:8
FNH:8
DA:978,24
DA:979,24
DA:993,8
DA:994,8
DA:1003,8
DA:1005,8
DA:1006,8
DA:1056,56
DA:1057,56
DA:1113,12
DA:1116,12
DA:1202,8
DA:1205,8
LF:13
LH:13
end_of_record
TN:
SF:/usr/include/c++/10/bits/stl_iterator_base_funcs.h
FN:98,_ZSt10__distanceIPKcENSt15iterator_traitsIT_E15difference_typeES3_S3_St26random_access_iterator_tag
FN:98,_ZSt10__distanceIPcENSt15iterator_traitsIT_E15difference_typeES2_S2_St26random_access_iterator_tag
FN:138,_ZSt8distanceIPKcENSt15iterator_traitsIT_E15difference_typeES3_S3_
FN:138,_ZSt8distanceIPcENSt15iterator_traitsIT_E15difference_typeES2_S2_
FNDA:0,_ZSt10__distanceIPcENSt15iterator_traitsIT_E15difference_typeES2_S2_St26random_access_iterator_tag
FNDA:0,_ZSt8distanceIPKcENSt15iterator_traitsIT_E15difference_typeES3_S3_
FNDA:0,_ZSt10__distanceIPKcENSt15iterator_traitsIT_E15difference_typeES3_S3_St26random_access_iterator_tag
FNDA:0,_ZSt8distanceIPcENSt15iterator_traitsIT_E15difference_typeES2_S2_
FNF:4
FNH:0
DA:98,0
DA:104,0
DA:138,0
DA:141,0
DA:142,0
LF:5
LH:0
end_of_record
TN:
SF:/usr/include/c++/10/bits/stl_iterator_base_types.h
FN:238,_ZSt19__iterator_categoryIPcENSt15iterator_traitsIT_E17iterator_categoryERKS2_
FN:238,_ZSt19__iterator_categoryIPKcENSt15iterator_traitsIT_E17iterator_categoryERKS3_
FNDA:0,_ZSt19__iterator_categoryIPcENSt15iterator_traitsIT_E17iterator_categoryERKS2_
FNDA:0,_ZSt19__iterator_categoryIPKcENSt15iterator_traitsIT_E17iterator_categoryERKS3_
FNF:2
FNH:0
DA:238,0
DA:239,0
LF:2
LH:0
end_of_record
TN:
SF:/usr/include/c++/10/bits/stl_uninitialized.h
FN:84,_ZNSt20__uninitialized_copyILb0EE13__uninit_copyIP6ResultS3_EET0_T_S5_S4_
FN:84,_ZNSt20__uninitialized_copyILb0EE13__uninit_copyIN9__gnu_cxx17__normal_iteratorIPK6ResultSt6vectorIS4_SaIS4_EEEEPS4_EET0_T_SD_SC_
FN:125,_ZSt18uninitialized_copyIP6ResultS1_ET0_T_S3_S2_
FN:125,_ZSt18uninitialized_copyIN9__gnu_cxx17__normal_iteratorIPK6ResultSt6vectorIS2_SaIS2_EEEEPS2_ET0_T_SB_SA_
FN:323,_ZSt22__uninitialized_copy_aIN9__gnu_cxx17__normal_iteratorIPK6ResultSt6vectorIS2_SaIS2_EEEEPS2_S2_ET0_T_SB_SA_RSaIT1_E
FN:323,_ZSt22__uninitialized_copy_aIP6ResultS1_S0_ET0_T_S3_S2_RSaIT1_E
FN:341,_ZSt34__uninitialized_move_if_noexcept_aIP6ResultS1_SaIS0_EET0_T_S4_S3_RT1_
FNDA:4,_ZSt22__uninitialized_copy_aIN9__gnu_cxx17__normal_iteratorIPK6ResultSt6vectorIS2_SaIS2_EEEEPS2_S2_ET0_T_SB_SA_RSaIT1_E
FNDA:4,_ZNSt20__uninitialized_copyILb0EE13__uninit_copyIN9__gnu_cxx17__normal_iteratorIPK6ResultSt6vectorIS4_SaIS4_EEEEPS4_EET0_T_SD_SC_
FNDA:16,_ZSt18uninitialized_copyIP6ResultS1_ET0_T_S3_S2_
FNDA:16,_ZNSt20__uninitialized_copyILb0EE13__uninit_copyIP6ResultS3_EET0_T_S5_S4_
FNDA:16,_ZSt22__uninitialized_copy_aIP6ResultS1_S0_ET0_T_S3_S2_RSaIT1_E
FNDA:16,_ZSt34__uninitialized_move_if_noexcept_aIP6ResultS1_SaIS0_EET0_T_S4_S3_RT1_
FNDA:4,_ZSt18uninitialized_copyIN9__gnu_cxx17__normal_iteratorIPK6ResultSt6vectorIS2_SaIS2_EEEEPS2_ET0_T_SB_SA_
FNF:7
FNH:7
DA:84,20
DA:87,20
DA:90,32
DA:91,12
DA:92,20
DA:94,0
DA:96,0
DA:97,0
DA:125,20
DA:133,20
DA:150,20
DA:323,20
DA:325,20
DA:341,16
DA:347,16
DA:348,16
LF:16
LH:13
end_of_record
TN:
SF:/usr/include/c++/10/bits/stl_vector.h
FN:97,_ZNSt12_Vector_baseI6ResultSaIS0_EE17_Vector_impl_dataC2Ev
FN:131,_ZNSt12_Vector_baseI6ResultSaIS0_EE12_Vector_implC2Ev
FN:136,_ZNSt12_Vector_baseI6ResultSaIS0_EE12_Vector_implC2ERKS1_
FN:276,_ZNSt12_Vector_baseI6ResultSaIS0_EE19_M_get_Tp_allocatorEv
FN:280,_ZNKSt12_Vector_baseI6ResultSaIS0_EE19_M_get_Tp_allocatorEv
FN:290,_ZNSt12_Vector_baseI6ResultSaIS0_EEC2Ev
FN:303,_ZNSt12_Vector_baseI6ResultSaIS0_EEC2EmRKS1_
FN:333,_ZNSt12_Vector_baseI6ResultSaIS0_EED2Ev
FN:343,_ZNSt12_Vector_baseI6ResultSaIS0_EE11_M_allocateEm
FN:350,_ZNSt12_Vector_baseI6ResultSaIS0_EE13_M_deallocateEPS0_m
FN:359,_ZNSt12_Vector_baseI6ResultSaIS0_EE17_M_create_storageEm
FN:489,_ZNSt6vectorI6ResultSaIS0_EEC2Ev
FN:553,_ZNSt6vectorI6ResultSaIS0_EEC2ERKS2_
FN:678,_ZNSt6vectorI6ResultSaIS0_EED2Ev
FN:811,_ZNSt6vectorI6ResultSaIS0_EE5beginEv
FN:820,_ZNKSt6vectorI6ResultSaIS0_EE5beginEv
FN:829,_ZNSt6vectorI6ResultSaIS0_EE3endEv
FN:838,_ZNKSt6vectorI6ResultSaIS0_EE3endEv
FN:918,_ZNKSt6vectorI6ResultSaIS0_EE4sizeEv
FN:923,_ZNKSt6vectorI6ResultSaIS0_EE8max_sizeEv
FN:1061,_ZNKSt6vectorI6ResultSaIS0_EEixEm
FN:1187,_ZNSt6vectorI6ResultSaIS0_EE9push_backERKS0_
FN:1756,_ZNKSt6vectorI6ResultSaIS0_EE12_M_check_lenEmPKc
FN:1776,_ZNSt6vectorI6ResultSaIS0_EE11_S_max_sizeERKS1_
FNDA:4,_ZNSt12_Vector_baseI6ResultSaIS0_EEC2Ev
FNDA:40,_ZNKSt6vectorI6ResultSaIS0_EE4sizeEv
FNDA:16,_ZNKSt6vectorI6ResultSaIS0_EE8max_sizeEv
FNDA:4,_ZNKSt6vectorI6ResultSaIS0_EE3endEv
FNDA:4,_ZNSt6vectorI6ResultSaIS0_EEC2ERKS2_
FNDA:16,_ZNSt6vectorI6ResultSaIS0_EE11_S_max_sizeERKS1_
FNDA:8,_ZNSt6vectorI6ResultSaIS0_EED2Ev
FNDA:8,_ZNSt6vectorI6ResultSaIS0_EE5beginEv
FNDA:4,_ZNSt6vectorI6ResultSaIS0_EEC2Ev
FNDA:8,_ZNSt12_Vector_baseI6ResultSaIS0_EE17_Vector_impl_dataC2Ev
FNDA:8,_ZNSt12_Vector_baseI6ResultSaIS0_EED2Ev
FNDA:8,_ZNSt6vectorI6ResultSaIS0_EE9push_backERKS0_
FNDA:4,_ZNSt12_Vector_baseI6ResultSaIS0_EE17_M_create_storageEm
FNDA:36,_ZNSt12_Vector_baseI6ResultSaIS0_EE19_M_get_Tp_allocatorEv
FNDA:8,_ZNSt6vectorI6ResultSaIS0_EE3endEv
FNDA:4,_ZNSt12_Vector_baseI6ResultSaIS0_EE12_Vector_implC2Ev
FNDA:4,_ZNSt12_Vector_baseI6ResultSaIS0_EE12_Vector_implC2ERKS1_
FNDA:8,_ZNKSt6vectorI6ResultSaIS0_EEixEm
FNDA:8,_ZNKSt6vectorI6ResultSaIS0_EE12_M_check_lenEmPKc
FNDA:4,_ZNSt12_Vector_baseI6ResultSaIS0_EEC2EmRKS1_
FNDA:20,_ZNKSt12_Vector_baseI6ResultSaIS0_EE19_M_get_Tp_allocatorEv
FNDA:16,_ZNSt12_Vector_baseI6ResultSaIS0_EE13_M_deallocateEPS0_m
FNDA:4,_ZNKSt6vectorI6ResultSaIS0_EE5beginEv
FNDA:12,_ZNSt12_Vector_baseI6ResultSaIS0_EE11_M_allocateEm
FNF:24
FNH:24
DA:97,8
DA:98,8
DA:99,8
DA:131,4
DA:133,4
DA:134,4
DA:136,4
DA:137,4
DA:138,4
DA:276,36
DA:277,36
DA:280,20
DA:281,20
DA:290,4
DA:303,4
DA:304,4
DA:305,4
DA:333,8
DA:335,8
DA:336,8
DA:337,8
DA:343,12
DA:346,12
DA:350,16
DA:353,16
DA:354,12
DA:355,16
DA:359,4
DA:361,4
DA:362,4
DA:363,4
DA:364,4
DA:489,4
DA:553,4
DA:555,4
DA:557,4
DA:558,4
DA:560,4
DA:561,4
DA:678,8
DA:680,8
DA:681,8
DA:683,8
DA:811,8
DA:812,8
DA:820,4
DA:821,4
DA:829,8
DA:830,8
DA:838,4
DA:839,4
DA:918,40
DA:919,40
DA:923,16
DA:924,16
DA:1061,8
DA:1064,8
DA:1187,8
DA:1189,8
DA:1192,0
DA:1194,0
DA:1198,8
DA:1199,8
DA:1756,8
DA:1758,8
DA:1759,0
DA:1761,8
DA:1762,8
DA:1776,16
DA:1781,16
DA:1783,16
DA:1784,16
LF:72
LH:69
end_of_record
TN:
SF:/usr/include/c++/10/bits/vector.tcc
FN:431,_ZNSt6vectorI6ResultSaIS0_EE17_M_realloc_insertEN9__gnu_cxx17__normal_iteratorIPS0_S2_EERKS0_
FNDA:8,_ZNSt6vectorI6ResultSaIS0_EE17_M_realloc_insertEN9__gnu_cxx17__normal_iteratorIPS0_S2_EERKS0_
FNF:1
FNH:1
DA:431,8
DA:436,8
DA:437,8
DA:438,8
DA:439,8
DA:440,8
DA:441,8
DA:449,8
DA:450,8
DA:456,8
DA:474,8
DA:475,8
DA:477,8
DA:481,8
DA:482,8
DA:485,0
DA:487,0
DA:488,0
DA:489,0
DA:491,0
DA:492,0
DA:493,0
DA:498,8
DA:500,8
DA:501,8
DA:502,8
DA:503,8
DA:504,8
DA:505,8
LF:29
LH:22
end_of_record
TN:
SF:/usr/include/c++/10/ext/alloc_traits.h
FN:132,_ZN9__gnu_cxx14__alloc_traitsISaI6ResultES1_E8allocateERS2_m
FN:140,_ZN9__gnu_cxx14__alloc_traitsISaI6ResultES1_E10deallocateERS2_PS1_m
FN:144,_ZN9__gnu_cxx14__alloc_traitsISaI6ResultES1_E9constructIS1_EEvRS2_PS1_RKT_
FN:147,_ZN9__gnu_cxx14__alloc_traitsISaI6ResultES1_E7destroyERS2_PS1_
FN:150,_ZN9__gnu_cxx14__alloc_traitsISaI6ResultES1_E8max_sizeERKS2_
FN:153,_ZN9__gnu_cxx14__alloc_traitsISaI6ResultES1_E17_S_select_on_copyERKS2_
FN:153,_ZN9__gnu_cxx14__alloc_traitsISaIcEcE17_S_select_on_copyERKS1_
FNDA:16,_ZN9__gnu_cxx14__alloc_traitsISaI6ResultES1_E8max_sizeERKS2_
FNDA:12,_ZN9__gnu_cxx14__alloc_traitsISaI6ResultES1_E10deallocateERS2_PS1_m
FNDA:4,_ZN9__gnu_cxx14__alloc_traitsISaI6ResultES1_E17_S_select_on_copyERKS2_
FNDA:0,_ZN9__gnu_cxx14__alloc_traitsISaIcEcE17_S_select_on_copyERKS1_
FNDA:8,_ZN9__gnu_cxx14__alloc_traitsISaI6ResultES1_E9constructIS1_EEvRS2_PS1_RKT_
FNDA:12,_ZN9__gnu_cxx14__alloc_traitsISaI6ResultES1_E8allocateERS2_m
FNDA:0,_ZN9__gnu_cxx14__alloc_traitsISaI6ResultES1_E7destroyERS2_PS1_
FNF:7
FNH:5
DA:132,12
DA:133,12
DA:140,12
DA:141,12
DA:144,8
DA:145,8
DA:147,0
DA:148,0
DA:150,16
DA:151,16
DA:153,4
LF:11
LH:9
end_of_record
TN:
SF:/usr/include/c++/10/ext/new_allocator.h
FN:79,_ZN9__gnu_cxx13new_allocatorI6ResultEC2Ev
FN:79,_ZN9__gnu_cxx13new_allocatorIcEC2Ev
FN:82,_ZN9__gnu_cxx13new_allocatorI6ResultEC2ERKS2_
FN:89,_ZN9__gnu_cxx13new_allocatorIcED2Ev
FN:89,_ZN9__gnu_cxx13new_allocatorI6ResultED2Ev
FN:103,_ZN9__gnu_cxx13new_allocatorI6ResultE8allocateEmPKv
FN:120,_ZN9__gnu_cxx13new_allocatorI6ResultE10deallocateEPS1_m
FN:142,_ZNK9__gnu_cxx13new_allocatorI6ResultE8max_sizeEv
FN:161,_ZN9__gnu_cxx13new_allocatorI6ResultE9constructEPS1_RKS1_
FN:165,_ZN9__gnu_cxx13new_allocatorI6ResultE7destroyEPS1_
FN:185,_ZNK9__gnu_cxx13new_allocatorI6ResultE11_M_max_sizeEv
FNDA:0,_ZN9__gnu_cxx13new_allocatorIcED2Ev
FNDA:12,_ZN9__gnu_cxx13new_allocatorI6ResultE8allocateEmPKv
FNDA:4,_ZN9__gnu_cxx13new_allocatorI6ResultEC2Ev
FNDA:4,_ZN9__gnu_cxx13new_allocatorI6ResultEC2ERKS2_
FNDA:0,_ZN9__gnu_cxx13new_allocatorIcEC2Ev
FNDA:16,_ZNK9__gnu_cxx13new_allocatorI6ResultE8max_sizeEv
FNDA:8,_ZN9__gnu_cxx13new_allocatorI6ResultE9constructEPS1_RKS1_
FNDA:8,_ZN9__gnu_cxx13new_allocatorI6ResultED2Ev
FNDA:28,_ZNK9__gnu_cxx13new_allocatorI6ResultE11_M_max_sizeEv
FNDA:12,_ZN9__gnu_cxx13new_allocatorI6ResultE10deallocateEPS1_m
FNDA:0,_ZN9__gnu_cxx13new_allocatorI6ResultE7destroyEPS1_
FNF:11
FNH:8
DA:79,4
DA:82,4
DA:89,8
DA:103,12
DA:105,12
DA:106,0
DA:115,12
DA:120,12
DA:133,12
DA:138,12
DA:142,16
DA:143,16
DA:161,8
DA:162,8
DA:165,0
DA:185,28
DA:188,28
LF:17
LH:15
end_of_record
TN:
SF:/usr/include/c++/10/ext/type_traits.h
FN:152,_ZN9__gnu_cxx17__is_null_pointerIKcEEbPT_
FN:152,_ZN9__gnu_cxx17__is_null_pointerIcEEbPT_
FNDA:0,_ZN9__gnu_cxx17__is_null_pointerIKcEEbPT_
FNDA:0,_ZN9__gnu_cxx17__is_null_pointerIcEEbPT_
FNF:2
FNH:0
DA:152,0
DA:153,0
LF:2
LH:0
end_of_record
TN:
SF:/usr/include/c++/10/new
FN:174,_ZnwmPv
FN:180,_ZdlPvS_
FNDA:0,_ZdlPvS_
FNDA:0,_ZnwmPv
FNF:2
FNH:0
DA:174,0
DA:175,0
DA:180,0
LF:3
LH:0
end_of_record
TN:
SF:/usr/local/include/gtest/gtest-printers.h
FN:222,_ZN16testing_internal26DefaultPrintNonContainerToIiEEvRKT_PSo
FN:275,_ZN7testing8internal19FormatForComparisonINSt7__cxx1112basic_stringIcSt11char_traitsIcESaIcEEEA6_cE6FormatERKS7_
FN:275,_ZN7testing8internal19FormatForComparisonIiiE6FormatB5cxx11ERKi
FN:284,_ZN7testing8internal19FormatForComparisonIA6_cNSt7__cxx1112basic_stringIcSt11char_traitsIcESaIcEEEE6FormatEPKc
FN:321,_ZN7testing8internal19FormatForComparisonIPKcNSt7__cxx1112basic_stringIcSt11char_traitsIcESaIcEEEE6FormatES3_
FN:349,_ZN7testing8internal33FormatForComparisonFailureMessageIiiEENSt7__cxx1112basic_stringIcSt11char_traitsIcESaIcEEERKT_RKT0_
FN:349,_ZN7testing8internal33FormatForComparisonFailureMessageINSt7__cxx1112basic_stringIcSt11char_traitsIcESaIcEEEA6_cEES7_RKT_RKT0_
FN:349,_ZN7testing8internal33FormatForComparisonFailureMessageIA6_cNSt7__cxx1112basic_stringIcSt11char_traitsIcESaIcEEEEES8_RKT_RKT0_
FN:436,_ZN7testing8internal14DefaultPrintToIiEEvcNS0_13bool_constantILb0EEERKT_PSo
FN:454,_ZN7testing8internal7PrintToIiEEvRKT_PSo
FN:565,_ZN7testing8internal7PrintToERKNSt7__cxx1112basic_stringIcSt11char_traitsIcESaIcEEEPSo
FN:698,_ZN7testing8internal16UniversalPrinterIiE5PrintERKiPSo
FN:698,_ZN7testing8internal16UniversalPrinterINSt7__cxx1112basic_stringIcSt11char_traitsIcESaIcEEEE5PrintERKS7_PSo
FN:783,_ZN7testing8internal21UniversalTersePrinterINSt7__cxx1112basic_stringIcSt11char_traitsIcESaIcEEEE5PrintERKS7_PSo
FN:783,_ZN7testing8internal21UniversalTersePrinterIiE5PrintERKiPSo
FN:804,_ZN7testing8internal21UniversalTersePrinterIPKcE5PrintES3_PSo
FN:852,_ZN7testing8internal14UniversalPrintIiEEvRKT_PSo
FN:852,_ZN7testing8internal14UniversalPrintINSt7__cxx1112basic_stringIcSt11char_traitsIcESaIcEEEEEvRKT_PSo
FN:980,_ZN7testing13PrintToStringINSt7__cxx1112basic_stringIcSt11char_traitsIcESaIcEEEEES6_RKT_
FN:980,_ZN7testing13PrintToStringIiEENSt7__cxx1112basic_stringIcSt11char_traitsIcESaIcEEERKT_
FN:980,_ZN7testing13PrintToStringIPKcEENSt7__cxx1112basic_stringIcSt11char_traitsIcESaIcEEERKT_
FNDA:0,_ZN16testing_internal26DefaultPrintNonContainerToIiEEvRKT_PSo
FNDA:0,_ZN7testing8internal19FormatForComparisonIiiE6FormatB5cxx11ERKi
FNDA:0,_ZN7testing8internal33FormatForComparisonFailureMessageINSt7__cxx1112basic_stringIcSt11char_traitsIcESaIcEEEA6_cEES7_RKT_RKT0_
FNDA:0,_ZN7testing13PrintToStringINSt7__cxx1112basic_stringIcSt11char_traitsIcESaIcEEEEES6_RKT_
FNDA:0,_ZN7testing8internal7PrintToERKNSt7__cxx1112basic_stringIcSt11char_traitsIcESaIcEEEPSo
FNDA:0,_ZN7testing8internal21UniversalTersePrinterIPKcE5PrintES3_PSo
FNDA:0,_ZN7testing8internal14UniversalPrintINSt7__cxx1112basic_stringIcSt11char_traitsIcESaIcEEEEEvRKT_PSo
FNDA:0,_ZN7testing8internal14UniversalPrintIiEEvRKT_PSo
FNDA:0,_ZN7testing8internal19FormatForComparisonIA6_cNSt7__cxx1112basic_stringIcSt11char_traitsIcESaIcEEEE6FormatEPKc
FNDA:0,_ZN7testing8internal33FormatForComparisonFailureMessageIiiEENSt7__cxx1112basic_stringIcSt11char_traitsIcESaIcEEERKT_RKT0_
FNDA:0,_ZN7testing8internal19FormatForComparisonINSt7__cxx1112basic_stringIcSt11char_traitsIcESaIcEEEA6_cE6FormatERKS7_
FNDA:0,_ZN7testing13PrintToStringIPKcEENSt7__cxx1112basic_stringIcSt11char_traitsIcESaIcEEERKT_
FNDA:0,_ZN7testing8internal16UniversalPrinterINSt7__cxx1112basic_stringIcSt11char_traitsIcESaIcEEEE5PrintERKS7_PSo
FNDA:0,_ZN7testing8internal21UniversalTersePrinterIiE5PrintERKiPSo
FNDA:0,_ZN7testing8internal16UniversalPrinterIiE5PrintERKiPSo
FNDA:0,_ZN7testing8internal7PrintToIiEEvRKT_PSo
FNDA:0,_ZN7testing8internal21UniversalTersePrinterINSt7__cxx1112basic_stringIcSt11char_traitsIcESaIcEEEE5PrintERKS7_PSo
FNDA:0,_ZN7testing13PrintToStringIiEENSt7__cxx1112basic_stringIcSt11char_traitsIcESaIcEEERKT_
FNDA:0,_ZN7testing8internal19FormatForComparisonIPKcNSt7__cxx1112basic_stringIcSt11char_traitsIcESaIcEEEE6FormatES3_
FNDA:0,_ZN7testing8internal33FormatForComparisonFailureMessageIA6_cNSt7__cxx1112basic_stringIcSt11char_traitsIcESaIcEEEEES8_RKT_RKT0_
FNDA:0,_ZN7testing8internal14DefaultPrintToIiEEvcNS0_13bool_constantILb0EEERKT_PSo
FNF:21
FNH:0
DA:222,0
DA:249,0
DA:250,0
DA:275,0
DA:276,0
DA:284,0
DA:285,0
DA:321,0
DA:349,0
DA:351,0
DA:436,0
DA:439,0
DA:440,0
DA:454,0
DA:477,0
DA:478,0
DA:565,0
DA:566,0
DA:567,0
DA:698,0
DA:707,0
DA:708,0
DA:783,0
DA:784,0
DA:785,0
DA:804,0
DA:805,0
DA:806,0
DA:808,0
DA:810,0
DA:852,0
DA:856,0
DA:857,0
DA:980,0
DA:981,0
DA:982,0
DA:983,0
LF:37
LH:0
end_of_record
TN:
SF:/usr/local/include/gtest/gtest.h
FN:272,_ZN7testing15AssertionResultC2IbEERKT_PNS_8internal8EnableIfIXntsrNS5_21ImplicitlyConvertibleIS2_S0_EE5valueEE4typeE
FN:288,_ZNK7testing15AssertionResultcvbEv
FN:297,_ZNK7testing15AssertionResult7messageEv
FN:302,_ZNK7testing15AssertionResult15failure_messageEv
FN:389,_ZN7testing4Test13SetUpTestCaseEv
FN:397,_ZN7testing4Test16TearDownTestCaseEv
FN:474,_ZN7testing4Test5SetupEv
FN:1375,_ZN7testing8internal18CmpHelperEQFailureINSt7__cxx1112basic_stringIcSt11char_traitsIcESaIcEEEA6_cEENS_15AssertionResultEPKcSB_RKT_RKT0_
FN:1375,_ZN7testing8internal18CmpHelperEQFailureIiiEENS_15AssertionResultEPKcS4_RKT_RKT0_
FN:1387,_ZN7testing8internal11CmpHelperEQIiiEENS_15AssertionResultEPKcS4_RKT_RKT0_
FN:1387,_ZN7testing8internal11CmpHelperEQINSt7__cxx1112basic_stringIcSt11char_traitsIcESaIcEEEA6_cEENS_15AssertionResultEPKcSB_RKT_RKT0_
FN:1417,_ZN7testing8internal8EqHelperILb0EE7CompareINSt7__cxx1112basic_stringIcSt11char_traitsIcESaIcEEEA6_cEENS_15AssertionResultEPKcSD_RKT_RKT0_
FN:1417,_ZN7testing8internal8EqHelperILb0EE7CompareIiiEENS_15AssertionResultEPKcS6_RKT_RKT0_
FN:1448,_ZN7testing8internal8EqHelperILb1EE7CompareIiiEENS_15AssertionResultEPKcS6_RKT_RKT0_PNS0_8EnableIfIXntsrNS0_10is_pointerISA_EE5valueEE4typeE
FNDA:0,_ZNK7testing15AssertionResult15failure_messageEv
FNDA:35,_ZN7testing8internal8EqHelperILb0EE7CompareIiiEENS_15AssertionResultEPKcS6_RKT_RKT0_
FNDA:0,_ZN7testing15AssertionResultC2IbEERKT_PNS_8internal8EnableIfIXntsrNS5_21ImplicitlyConvertibleIS2_S0_EE5valueEE4typeE
FNDA:4,_ZN7testing8internal8EqHelperILb0EE7CompareINSt7__cxx1112basic_stringIcSt11char_traitsIcESaIcEEEA6_cEENS_15AssertionResultEPKcSD_RKT_RKT0_
FNDA:15,_ZN7testing4Test16TearDownTestCaseEv
FNDA:15,_ZN7testing8internal8EqHelperILb1EE7CompareIiiEENS_15AssertionResultEPKcS6_RKT_RKT0_PNS0_8EnableIfIXntsrNS0_10is_pointerISA_EE5valueEE4typeE
FNDA:0,_ZN7testing4Test5SetupEv
FNDA:4,_ZN7testing8internal11CmpHelperEQINSt7__cxx1112basic_stringIcSt11char_traitsIcESaIcEEEA6_cEENS_15AssertionResultEPKcSB_RKT_RKT0_
FNDA:50,_ZN7testing8internal11CmpHelperEQIiiEENS_15AssertionResultEPKcS4_RKT_RKT0_
FNDA:0,_ZNK7testing15AssertionResult7messageEv
FNDA:0,_ZNK7testing15AssertionResultcvbEv
FNDA:15,_ZN7testing4Test13SetUpTestCaseEv
FNDA:0,_ZN7testing8internal18CmpHelperEQFailureINSt7__cxx1112basic_stringIcSt11char_traitsIcESaIcEEEA6_cEENS_15AssertionResultEPKcSB_RKT_RKT0_
FNDA:0,_ZN7testing8internal18CmpHelperEQFailureIiiEENS_15AssertionResultEPKcS4_RKT_RKT0_
FNF:14
FNH:7
DA:272,0
DA:277,0
DA:288,0
DA:297,0
DA:298,0
DA:302,0
DA:389,15
DA:397,15
DA:474,0
DA:1375,0
DA:1380,0
DA:1381,0
DA:1382,0
DA:1387,54
DA:1392,54
DA:1393,54
DA:1397,0
DA:1417,39
DA:1421,39
DA:1448,15
DA:1459,15
LF:21
LH:9
end_of_record
TN:
SF:/usr/local/include/gtest/internal/gtest-internal.h
FN:447,_ZN7testing8internal9GetTypeIdI14DependencyTestEEPKvv
FN:447,_ZN7testing8internal9GetTypeIdI14CalculatorTestEEPKvv
FN:447,_ZN7testing8internal9GetTypeIdI16ErrorHandlerTestEEPKvv
FN:466,_ZN7testing8internal15TestFactoryBaseD2Ev
FN:466,_ZN7testing8internal15TestFactoryBaseD0Ev
FN:473,_ZN7testing8internal15TestFactoryBaseC2Ev
FN:484,_ZN7testing8internal15TestFactoryImplI32CalculatorTest_MultiplyTest_TestE10CreateTestEv
FN:484,_ZN7testing8internal15TestFactoryImplI31DataTest_GetResultsAndSize_TestE10CreateTestEv
FN:484,_ZN7testing8internal15TestFactoryImplI37DependencyTest_CalculatorLogsAdd_TestE10CreateTestEv
FN:484,_ZN7testing8internal15TestFactoryImplI34CalculatorTest_LastResultTest_TestE10CreateTestEv
FN:484,_ZN7testing8internal15TestFactoryImplI34ErrorHandlerTest_DivideByZero_TestE10CreateTestEv
FN:484,_ZN7testing8internal15TestFactoryImplI27CalculatorTest_AddTest_TestE10CreateTestEv
FN:484,_ZN7testing8internal15TestFactoryImplI43ErrorHandlerTest_DivideThrowsException_TestE10CreateTestEv
FN:484,_ZN7testing8internal15TestFactoryImplI34ErrorHandlerTest_DivideNormal_TestE10CreateTestEv
FN:484,_ZN7testing8internal15TestFactoryImplI42DependencyTest_CalculatorLogsMultiply_TestE10CreateTestEv
FN:505,_ZN7testing8internal12CodeLocationC2ERKNSt7__cxx1112basic_stringIcSt11char_traitsIcESaIcEEEi
FN:742,_ZN7testing8internal12ConstCharPtrC2EPKc
FN:743,_ZNK7testing8internal12ConstCharPtrcvbEv
FN:940,_ZN7testing8internal15IsContainerTestIiEEcl
FNDA:2,_ZN7testing8internal15TestFactoryImplI37DependencyTest_CalculatorLogsAdd_TestE10CreateTestEv
FNDA:35,_ZN7testing8internal15TestFactoryBaseD2Ev
FNDA:35,_ZN7testing8internal15TestFactoryBaseC2Ev
FNDA:4,_ZN7testing8internal15TestFactoryImplI31DataTest_GetResultsAndSize_TestE10CreateTestEv
FNDA:3,_ZNK7testing8internal12ConstCharPtrcvbEv
FNDA:6,_ZN7testing8internal15TestFactoryImplI32CalculatorTest_MultiplyTest_TestE10CreateTestEv
FNDA:0,_ZN7testing8internal15IsContainerTestIiEEcl
FNDA:3,_ZN7testing8internal15TestFactoryImplI34ErrorHandlerTest_DivideNormal_TestE10CreateTestEv
FNDA:2,_ZN7testing8internal15TestFactoryImplI42DependencyTest_CalculatorLogsMultiply_TestE10CreateTestEv
FNDA:9,_ZN7testing8internal9GetTypeIdI16ErrorHandlerTestEEPKvv
FNDA:0,_ZN7testing8internal15TestFactoryBaseD0Ev
FNDA:6,_ZN7testing8internal15TestFactoryImplI27CalculatorTest_AddTest_TestE10CreateTestEv
FNDA:3,_ZN7testing8internal15TestFactoryImplI34ErrorHandlerTest_DivideByZero_TestE10CreateTestEv
FNDA:3,_ZN7testing8internal15TestFactoryImplI43ErrorHandlerTest_DivideThrowsException_TestE10CreateTestEv
FNDA:4,_ZN7testing8internal9GetTypeIdI14DependencyTestEEPKvv
FNDA:6,_ZN7testing8internal15TestFactoryImplI34CalculatorTest_LastResultTest_TestE10CreateTestEv
FNDA:3,_ZN7testing8internal12ConstCharPtrC2EPKc
FNDA:35,_ZN7testing8internal12CodeLocationC2ERKNSt7__cxx1112basic_stringIcSt11char_traitsIcESaIcEEEi
FNDA:18,_ZN7testing8internal9GetTypeIdI14CalculatorTestEEPKvv
FNF:19
FNH:17
DA:447,31
DA:452,31
DA:466,35
DA:473,35
DA:484,35
DA:505,35
DA:742,3
DA:743,3
DA:940,0
LF:9
LH:8
end_of_record
TN:
SF:/usr/local/include/gtest/internal/gtest-port.h
FN:1119,_ZN7testing8internal10scoped_ptrINSt7__cxx1112basic_stringIcSt11char_traitsIcESaIcEEEEC2EPS7_
FN:1120,_ZN7testing8internal10scoped_ptrINSt7__cxx1112basic_stringIcSt11char_traitsIcESaIcEEEED2Ev
FN:1120,_ZN7testing8internal10scoped_ptrINSt7__cxx1118basic_stringstreamIcSt11char_traitsIcESaIcEEEED2Ev
FN:1123,_ZNK7testing8internal10scoped_ptrINSt7__cxx1112basic_stringIcSt11char_traitsIcESaIcEEEEptEv
FN:1124,_ZNK7testing8internal10scoped_ptrINSt7__cxx1112basic_stringIcSt11char_traitsIcESaIcEEEE3getEv
FN:1132,_ZN7testing8internal10scoped_ptrINSt7__cxx1118basic_stringstreamIcSt11char_traitsIcESaIcEEEE5resetEPS7_
FN:1132,_ZN7testing8internal10scoped_ptrINSt7__cxx1112basic_stringIcSt11char_traitsIcESaIcEEEE5resetEPS7_
FNDA:0,_ZNK7testing8internal10scoped_ptrINSt7__cxx1112basic_stringIcSt11char_traitsIcESaIcEEEE3getEv
FNDA:0,_ZN7testing8internal10scoped_ptrINSt7__cxx1112basic_stringIcSt11char_traitsIcESaIcEEEE5resetEPS7_
FNDA:0,_ZN7testing8internal10scoped_ptrINSt7__cxx1112basic_stringIcSt11char_traitsIcESaIcEEEEC2EPS7_
FNDA:0,_ZN7testing8internal10scoped_ptrINSt7__cxx1118basic_stringstreamIcSt11char_traitsIcESaIcEEEE5resetEPS7_
FNDA:0,_ZNK7testing8internal10scoped_ptrINSt7__cxx1112basic_stringIcSt11char_traitsIcESaIcEEEEptEv
FNDA:0,_ZN7testing8internal10scoped_ptrINSt7__cxx1118basic_stringstreamIcSt11char_traitsIcESaIcEEEED2Ev
FNDA:0,_ZN7testing8internal10scoped_ptrINSt7__cxx1112basic_stringIcSt11char_traitsIcESaIcEEEED2Ev
FNF:7
FNH:0
DA:1119,0
DA:1120,0
DA:1123,0
DA:1124,0
DA:1132,0
DA:1133,0
DA:1134,0
DA:1135,0
DA:1137,0
DA:1139,0
LF:10
LH:0
end_of_record
